target datalayout = "e-m:e-p270:32:32-p271:32:32-p272:64:64-i64:64-i128:128-f80:128-n8:16:32:64-S128"
target triple = "x86_64-pc-linux-gnu"

; Function Attrs: mustprogress nounwind uwtable
define linkonce_odr hidden void @_ZN2cv12cpu_baseline16accProd_general_IfdEEvPKT_S4_PT0_PKhiii(ptr noundef %0, ptr noundef %1, ptr noundef %2, ptr noundef %3, i32 noundef %4, i32 noundef %5, i32 noundef %6) #2 comdat {
  %8 = alloca ptr, align 8
  %9 = alloca ptr, align 8
  %10 = alloca ptr, align 8
  %11 = alloca ptr, align 8
  %12 = alloca i32, align 4
  %13 = alloca i32, align 4
  %14 = alloca i32, align 4
  %15 = alloca i32, align 4
  %16 = alloca i32, align 4
  store ptr %0, ptr %8, align 8, !tbaa !8
  store ptr %1, ptr %9, align 8, !tbaa !8
  store ptr %2, ptr %10, align 8, !tbaa !29
  store ptr %3, ptr %11, align 8, !tbaa !3
  store i32 %4, ptr %12, align 4, !tbaa !10
  store i32 %5, ptr %13, align 4, !tbaa !10
  store i32 %6, ptr %14, align 4, !tbaa !10
  call void @llvm.lifetime.start.p0(i64 4, ptr %15) #4
  %17 = load i32, ptr %14, align 4, !tbaa !10
  store i32 %17, ptr %15, align 4, !tbaa !10
  %18 = load ptr, ptr %11, align 8, !tbaa !3
  %19 = icmp ne ptr %18, null
  br i1 %19, label %51, label %20

20:                                               ; preds = %7
  %21 = load i32, ptr %13, align 4, !tbaa !10
  %22 = load i32, ptr %12, align 4, !tbaa !10
  %23 = mul nsw i32 %22, %21
  store i32 %23, ptr %12, align 4, !tbaa !10
  br label %24

24:                                               ; preds = %47, %20
  %25 = load i32, ptr %15, align 4, !tbaa !10
  %26 = load i32, ptr %12, align 4, !tbaa !10
  %27 = icmp slt i32 %25, %26
  br i1 %27, label %28, label %50

28:                                               ; preds = %24
  %29 = load ptr, ptr %8, align 8, !tbaa !8
  %30 = load i32, ptr %15, align 4, !tbaa !10
  %31 = sext i32 %30 to i64
  %32 = getelementptr inbounds float, ptr %29, i64 %31
  %33 = load float, ptr %32, align 4, !tbaa !13
  %34 = fpext float %33 to double
  %35 = load ptr, ptr %9, align 8, !tbaa !8
  %36 = load i32, ptr %15, align 4, !tbaa !10
  %37 = sext i32 %36 to i64
  %38 = getelementptr inbounds float, ptr %35, i64 %37
  %39 = load float, ptr %38, align 4, !tbaa !13
  %40 = fpext float %39 to double
  %41 = load ptr, ptr %10, align 8, !tbaa !29
  %42 = load i32, ptr %15, align 4, !tbaa !10
  %43 = sext i32 %42 to i64
  %44 = getelementptr inbounds double, ptr %41, i64 %43
  %45 = load double, ptr %44, align 8, !tbaa !31
  %46 = call double @llvm.fmuladd.f64(double %34, double %40, double %45)
  store double %46, ptr %44, align 8, !tbaa !31
  br label %47

47:                                               ; preds = %28
  %48 = load i32, ptr %15, align 4, !tbaa !10
  %49 = add nsw i32 %48, 1
  store i32 %49, ptr %15, align 4, !tbaa !10
  br label %24, !llvm.loop !81

50:                                               ; preds = %24
  br label %127

51:                                               ; preds = %7
  %52 = load i32, ptr %15, align 4, !tbaa !10
  %53 = load i32, ptr %13, align 4, !tbaa !10
  %54 = mul nsw i32 %52, %53
  %55 = load ptr, ptr %8, align 8, !tbaa !8
  %56 = sext i32 %54 to i64
  %57 = getelementptr inbounds float, ptr %55, i64 %56
  store ptr %57, ptr %8, align 8, !tbaa !8
  %58 = load i32, ptr %15, align 4, !tbaa !10
  %59 = load i32, ptr %13, align 4, !tbaa !10
  %60 = mul nsw i32 %58, %59
  %61 = load ptr, ptr %9, align 8, !tbaa !8
  %62 = sext i32 %60 to i64
  %63 = getelementptr inbounds float, ptr %61, i64 %62
  store ptr %63, ptr %9, align 8, !tbaa !8
  %64 = load i32, ptr %15, align 4, !tbaa !10
  %65 = load i32, ptr %13, align 4, !tbaa !10
  %66 = mul nsw i32 %64, %65
  %67 = load ptr, ptr %10, align 8, !tbaa !29
  %68 = sext i32 %66 to i64
  %69 = getelementptr inbounds double, ptr %67, i64 %68
  store ptr %69, ptr %10, align 8, !tbaa !29
  br label %70

70:                                               ; preds = %111, %51
  %71 = load i32, ptr %15, align 4, !tbaa !10
  %72 = load i32, ptr %12, align 4, !tbaa !10
  %73 = icmp slt i32 %71, %72
  br i1 %73, label %74, label %126

74:                                               ; preds = %70
  %75 = load ptr, ptr %11, align 8, !tbaa !3
  %76 = load i32, ptr %15, align 4, !tbaa !10
  %77 = sext i32 %76 to i64
  %78 = getelementptr inbounds i8, ptr %75, i64 %77
  %79 = load i8, ptr %78, align 1, !tbaa !12
  %80 = icmp ne i8 %79, 0
  br i1 %80, label %81, label %110

81:                                               ; preds = %74
  call void @llvm.lifetime.start.p0(i64 4, ptr %16) #4
  store i32 0, ptr %16, align 4, !tbaa !10
  br label %82

82:                                               ; preds = %106, %81
  %83 = load i32, ptr %16, align 4, !tbaa !10
  %84 = load i32, ptr %13, align 4, !tbaa !10
  %85 = icmp slt i32 %83, %84
  br i1 %85, label %87, label %86

86:                                               ; preds = %82
  call void @llvm.lifetime.end.p0(i64 4, ptr %16) #4
  br label %109

87:                                               ; preds = %82
  %88 = load ptr, ptr %8, align 8, !tbaa !8
  %89 = load i32, ptr %16, align 4, !tbaa !10
  %90 = sext i32 %89 to i64
  %91 = getelementptr inbounds float, ptr %88, i64 %90
  %92 = load float, ptr %91, align 4, !tbaa !13
  %93 = fpext float %92 to double
  %94 = load ptr, ptr %9, align 8, !tbaa !8
  %95 = load i32, ptr %16, align 4, !tbaa !10
  %96 = sext i32 %95 to i64
  %97 = getelementptr inbounds float, ptr %94, i64 %96
  %98 = load float, ptr %97, align 4, !tbaa !13
  %99 = fpext float %98 to double
  %100 = load ptr, ptr %10, align 8, !tbaa !29
  %101 = load i32, ptr %16, align 4, !tbaa !10
  %102 = sext i32 %101 to i64
  %103 = getelementptr inbounds double, ptr %100, i64 %102
  %104 = load double, ptr %103, align 8, !tbaa !31
  %105 = call double @llvm.fmuladd.f64(double %93, double %99, double %104)
  store double %105, ptr %103, align 8, !tbaa !31
  br label %106

106:                                              ; preds = %87
  %107 = load i32, ptr %16, align 4, !tbaa !10
  %108 = add nsw i32 %107, 1
  store i32 %108, ptr %16, align 4, !tbaa !10
  br label %82, !llvm.loop !82

109:                                              ; preds = %86
  br label %110

110:                                              ; preds = %109, %74
  br label %111

111:                                              ; preds = %110
  %112 = load i32, ptr %15, align 4, !tbaa !10
  %113 = add nsw i32 %112, 1
  store i32 %113, ptr %15, align 4, !tbaa !10
  %114 = load i32, ptr %13, align 4, !tbaa !10
  %115 = load ptr, ptr %8, align 8, !tbaa !8
  %116 = sext i32 %114 to i64
  %117 = getelementptr inbounds float, ptr %115, i64 %116
  store ptr %117, ptr %8, align 8, !tbaa !8
  %118 = load i32, ptr %13, align 4, !tbaa !10
  %119 = load ptr, ptr %9, align 8, !tbaa !8
  %120 = sext i32 %118 to i64
  %121 = getelementptr inbounds float, ptr %119, i64 %120
  store ptr %121, ptr %9, align 8, !tbaa !8
  %122 = load i32, ptr %13, align 4, !tbaa !10
  %123 = load ptr, ptr %10, align 8, !tbaa !29
  %124 = sext i32 %122 to i64
  %125 = getelementptr inbounds double, ptr %123, i64 %124
  store ptr %125, ptr %10, align 8, !tbaa !29
  br label %70, !llvm.loop !83

126:                                              ; preds = %70
  br label %127

127:                                              ; preds = %126, %50
  call void @llvm.lifetime.end.p0(i64 4, ptr %15) #4
  ret void
}

; Function Attrs: mustprogress uwtable
define hidden void @_ZN2cv12cpu_baseline13accProd_simd_EPKfS2_PdPKhii(ptr noundef %0, ptr noundef %1, ptr noundef %2, ptr noundef %3, i32 noundef %4, i32 noundef %5) #0 {
  %7 = alloca ptr, align 8
  %8 = alloca ptr, align 8
  %9 = alloca ptr, align 8
  %10 = alloca ptr, align 8
  %11 = alloca i32, align 4
  %12 = alloca i32, align 4
  %13 = alloca i32, align 4
  store ptr %0, ptr %7, align 8, !tbaa !8
  store ptr %1, ptr %8, align 8, !tbaa !8
  store ptr %2, ptr %9, align 8, !tbaa !29
  store ptr %3, ptr %10, align 8, !tbaa !3
  store i32 %4, ptr %11, align 4, !tbaa !10
  store i32 %5, ptr %12, align 4, !tbaa !10
  call void @llvm.lifetime.start.p0(i64 4, ptr %13) #4
  store i32 0, ptr %13, align 4, !tbaa !10
  %14 = load ptr, ptr %7, align 8, !tbaa !8
  %15 = load ptr, ptr %8, align 8, !tbaa !8
  %16 = load ptr, ptr %9, align 8, !tbaa !29
  %17 = load ptr, ptr %10, align 8, !tbaa !3
  %18 = load i32, ptr %11, align 4, !tbaa !10
  %19 = load i32, ptr %12, align 4, !tbaa !10
  %20 = load i32, ptr %13, align 4, !tbaa !10
  call void @_ZN2cv12cpu_baseline16accProd_general_IfdEEvPKT_S4_PT0_PKhiii(ptr noundef %14, ptr noundef %15, ptr noundef %16, ptr noundef %17, i32 noundef %18, i32 noundef %19, i32 noundef %20)
  call void @llvm.lifetime.end.p0(i64 4, ptr %13) #4
  ret void
}