; Function Attrs: mustprogress nofree norecurse nosync nounwind memory(argmem: readwrite) uwtable
define hidden void @_ZN2cv12cpu_baseline13accProd_simd_EPKfS2_PdPKhii(ptr noundef readonly captures(none) %0, ptr noundef readonly captures(none) %1, ptr noundef captures(none) %2, ptr noundef readonly %3, i32 noundef %4, i32 noundef %5) local_unnamed_addr #0 {
  %.not.i = icmp eq ptr %3, null
  br i1 %.not.i, label %7, label %19

7:                                                ; preds = %6
  %8 = mul nsw i32 %5, %4
  %9 = icmp sgt i32 %8, 0
  br i1 %9, label %.lr.ph.preheader.i, label %_ZN2cv12cpu_baseline16accProd_general_IfdEEvPKT_S4_PT0_PKhiii.exit

.lr.ph.preheader.i:                               ; preds = %7
  %wide.trip.count67.i = zext nneg i32 %8 to i64
  br label %.lr.ph.i

.lr.ph.i:                                         ; preds = %.lr.ph.i, %.lr.ph.preheader.i
  %indvars.iv64.i = phi i64 [ 0, %.lr.ph.preheader.i ], [ %indvars.iv.next65.i, %.lr.ph.i ]
  %10 = getelementptr inbounds nuw float, ptr %0, i64 %indvars.iv64.i
  %11 = load float, ptr %10, align 4, !tbaa !6
  %12 = fpext float %11 to double
  %13 = getelementptr inbounds nuw float, ptr %1, i64 %indvars.iv64.i
  %14 = load float, ptr %13, align 4, !tbaa !6
  %15 = fpext float %14 to double
  %16 = getelementptr inbounds nuw double, ptr %2, i64 %indvars.iv64.i
  %17 = load double, ptr %16, align 8, !tbaa !20
  %18 = tail call double @llvm.fmuladd.f64(double %12, double %15, double %17)
  store double %18, ptr %16, align 8, !tbaa !20
  %indvars.iv.next65.i = add nuw nsw i64 %indvars.iv64.i, 1
  %exitcond68.not.i = icmp eq i64 %indvars.iv.next65.i, %wide.trip.count67.i
  br i1 %exitcond68.not.i, label %_ZN2cv12cpu_baseline16accProd_general_IfdEEvPKT_S4_PT0_PKhiii.exit, label %.lr.ph.i, !llvm.loop !70

19:                                               ; preds = %6
  %20 = icmp sgt i32 %4, 0
  br i1 %20, label %.lr.ph54.i, label %_ZN2cv12cpu_baseline16accProd_general_IfdEEvPKT_S4_PT0_PKhiii.exit

.lr.ph54.i:                                       ; preds = %19
  %21 = icmp sgt i32 %5, 0
  %22 = sext i32 %5 to i64
  br i1 %21, label %.lr.ph54.split.us.preheader.i, label %_ZN2cv12cpu_baseline16accProd_general_IfdEEvPKT_S4_PT0_PKhiii.exit

.lr.ph54.split.us.preheader.i:                    ; preds = %.lr.ph54.i
  %wide.trip.count62.i = zext nneg i32 %4 to i64
  %wide.trip.count.i = zext nneg i32 %5 to i64
  br label %.lr.ph54.split.us.i

.lr.ph54.split.us.i:                              ; preds = %..loopexit47_crit_edge.us.i, %.lr.ph54.split.us.preheader.i
  %indvars.iv59.i = phi i64 [ 0, %.lr.ph54.split.us.preheader.i ], [ %indvars.iv.next60.i, %..loopexit47_crit_edge.us.i ]
  %.04252.us.i = phi ptr [ %0, %.lr.ph54.split.us.preheader.i ], [ %34, %..loopexit47_crit_edge.us.i ]
  %.04351.us.i = phi ptr [ %1, %.lr.ph54.split.us.preheader.i ], [ %35, %..loopexit47_crit_edge.us.i ]
  %.04450.us.i = phi ptr [ %2, %.lr.ph54.split.us.preheader.i ], [ %36, %..loopexit47_crit_edge.us.i ]
  %23 = getelementptr inbounds nuw i8, ptr %3, i64 %indvars.iv59.i
  %24 = load i8, ptr %23, align 1, !tbaa !3
  %.not46.us.i = icmp eq i8 %24, 0
  br i1 %.not46.us.i, label %..loopexit47_crit_edge.us.i, label %.preheader.us.i

.preheader.us.i:                                  ; preds = %.lr.ph54.split.us.i, %.preheader.us.i
  %indvars.iv.i = phi i64 [ %indvars.iv.next.i, %.preheader.us.i ], [ 0, %.lr.ph54.split.us.i ]
  %25 = getelementptr inbounds nuw float, ptr %.04252.us.i, i64 %indvars.iv.i
  %26 = load float, ptr %25, align 4, !tbaa !6
  %27 = fpext float %26 to double
  %28 = getelementptr inbounds nuw float, ptr %.04351.us.i, i64 %indvars.iv.i
  %29 = load float, ptr %28, align 4, !tbaa !6
  %30 = fpext float %29 to double
  %31 = getelementptr inbounds nuw double, ptr %.04450.us.i, i64 %indvars.iv.i
  %32 = load double, ptr %31, align 8, !tbaa !20
  %33 = tail call double @llvm.fmuladd.f64(double %27, double %30, double %32)
  store double %33, ptr %31, align 8, !tbaa !20
  %indvars.iv.next.i = add nuw nsw i64 %indvars.iv.i, 1
  %exitcond.not.i = icmp eq i64 %indvars.iv.next.i, %wide.trip.count.i
  br i1 %exitcond.not.i, label %..loopexit47_crit_edge.us.i, label %.preheader.us.i, !llvm.loop !71

..loopexit47_crit_edge.us.i:                      ; preds = %.preheader.us.i, %.lr.ph54.split.us.i
  %indvars.iv.next60.i = add nuw nsw i64 %indvars.iv59.i, 1
  %34 = getelementptr inbounds nuw float, ptr %.04252.us.i, i64 %22
  %35 = getelementptr inbounds nuw float, ptr %.04351.us.i, i64 %22
  %36 = getelementptr inbounds nuw double, ptr %.04450.us.i, i64 %22
  %exitcond63.not.i = icmp eq i64 %indvars.iv.next60.i, %wide.trip.count62.i
  br i1 %exitcond63.not.i, label %_ZN2cv12cpu_baseline16accProd_general_IfdEEvPKT_S4_PT0_PKhiii.exit, label %.lr.ph54.split.us.i, !llvm.loop !72

_ZN2cv12cpu_baseline16accProd_general_IfdEEvPKT_S4_PT0_PKhiii.exit: ; preds = %..loopexit47_crit_edge.us.i, %.lr.ph.i, %7, %19, %.lr.ph54.i
  ret void
}